target datalayout = "e-m:e-p270:32:32-p271:32:32-p272:64:64-i64:64-i128:128-f80:128-n8:16:32:64-S128"
target triple = "x86_64-pc-linux-gnu"

%"class.std::ios_base" = type { ptr, i64, i64, i32, i32, i32, ptr, %"struct.std::ios_base::_Words", [8 x %"struct.std::ios_base::_Words"], i32, ptr, %"class.std::locale" }
%"struct.std::ios_base::_Words" = type { ptr, i64 }
%"class.std::locale" = type { ptr }

@.str = private unnamed_addr constant [15 x i8] c"ArithPivotStep\00", align 1
@.str.1 = private unnamed_addr constant [20 x i8] c"ArithNlCoveringStep\00", align 1
@.str.2 = private unnamed_addr constant [17 x i8] c"ArithNlLemmaStep\00", align 1
@.str.3 = private unnamed_addr constant [13 x i8] c"BitblastStep\00", align 1
@.str.4 = private unnamed_addr constant [10 x i8] c"BvSatStep\00", align 1
@.str.5 = private unnamed_addr constant [8 x i8] c"CnfStep\00", align 1
@.str.6 = private unnamed_addr constant [13 x i8] c"DecisionStep\00", align 1
@.str.7 = private unnamed_addr constant [10 x i8] c"LemmaStep\00", align 1
@.str.8 = private unnamed_addr constant [14 x i8] c"NewSkolemStep\00", align 1
@.str.9 = private unnamed_addr constant [10 x i8] c"ParseStep\00", align 1
@.str.10 = private unnamed_addr constant [15 x i8] c"PreprocessStep\00", align 1
@.str.11 = private unnamed_addr constant [15 x i8] c"QuantifierStep\00", align 1
@.str.12 = private unnamed_addr constant [12 x i8] c"RestartStep\00", align 1
@.str.13 = private unnamed_addr constant [12 x i8] c"RewriteStep\00", align 1
@.str.14 = private unnamed_addr constant [16 x i8] c"SatConflictStep\00", align 1
@.str.15 = private unnamed_addr constant [15 x i8] c"SygusCheckStep\00", align 1
@.str.16 = private unnamed_addr constant [16 x i8] c"TheoryCheckStep\00", align 1
@.str.17 = private unnamed_addr constant [20 x i8] c"TheoryFullCheckStep\00", align 1
@.str.18 = private unnamed_addr constant [14 x i8] c"FindSynthStep\00", align 1
@.str.19 = private unnamed_addr constant [11 x i8] c"?Resource?\00", align 1

; Function Attrs: inlinehint mustprogress nounwind uwtable
define linkonce_odr noundef i32 @_ZStorSt12_Ios_IostateS_(i32 noundef %0, i32 noundef %1) #12 comdat {
  %3 = alloca i32, align 4
  %4 = alloca i32, align 4
  store i32 %0, ptr %3, align 4, !tbaa !427
  store i32 %1, ptr %4, align 4, !tbaa !427
  %5 = load i32, ptr %3, align 4, !tbaa !427
  %6 = load i32, ptr %4, align 4, !tbaa !427
  %7 = or i32 %5, %6
  ret i32 %7
}

; Function Attrs: mustprogress nounwind uwtable
define available_externally noundef i32 @_ZNKSt9basic_iosIcSt11char_traitsIcEE7rdstateEv(ptr noundef nonnull align 8 dereferenceable(264) %0) #6 align 2 {
  %2 = alloca ptr, align 8
  store ptr %0, ptr %2, align 8, !tbaa !402
  %3 = load ptr, ptr %2, align 8
  %4 = getelementptr inbounds nuw %"class.std::ios_base", ptr %3, i32 0, i32 5
  %5 = load i32, ptr %4, align 8, !tbaa !428
  ret i32 %5
}

; Function Attrs: mustprogress nounwind uwtable
define linkonce_odr hidden noundef i64 @_ZNSt11char_traitsIcE6lengthEPKc(ptr noundef %0) #6 comdat align 2 {
  %2 = alloca ptr, align 8
  store ptr %0, ptr %2, align 8, !tbaa !27
  %3 = load ptr, ptr %2, align 8, !tbaa !27
  %4 = call i64 @strlen(ptr noundef %3) #3
  ret i64 %4
}

; Function Attrs: mustprogress uwtable
define available_externally void @_ZNSt9basic_iosIcSt11char_traitsIcEE8setstateESt12_Ios_Iostate(ptr noundef nonnull align 8 dereferenceable(264) %0, i32 noundef %1) #4 align 2 {
  %3 = alloca ptr, align 8
  %4 = alloca i32, align 4
  store ptr %0, ptr %3, align 8, !tbaa !402
  store i32 %1, ptr %4, align 4, !tbaa !427
  %5 = load ptr, ptr %3, align 8
  %6 = call noundef i32 @_ZNKSt9basic_iosIcSt11char_traitsIcEE7rdstateEv(ptr noundef nonnull align 8 dereferenceable(264) %5)
  %7 = load i32, ptr %4, align 4, !tbaa !427
  %8 = call noundef i32 @_ZStorSt12_Ios_IostateS_(i32 noundef %6, i32 noundef %7)
  call void @_ZNSt9basic_iosIcSt11char_traitsIcEE5clearESt12_Ios_Iostate(ptr noundef nonnull align 8 dereferenceable(264) %5, i32 noundef %8)
  ret void
}

; Function Attrs: inlinehint mustprogress uwtable
define available_externally noundef nonnull align 8 dereferenceable(8) ptr @_ZStlsISt11char_traitsIcEERSt13basic_ostreamIcT_ES5_PKc(ptr noundef nonnull align 8 dereferenceable(8) %0, ptr noundef %1) #8 {
  %3 = alloca ptr, align 8
  %4 = alloca ptr, align 8
  store ptr %0, ptr %3, align 8, !tbaa !25
  store ptr %1, ptr %4, align 8, !tbaa !27
  %5 = load ptr, ptr %4, align 8, !tbaa !27
  %6 = icmp ne ptr %5, null
  br i1 %6, label %13, label %7

7:                                                ; preds = %2
  %8 = load ptr, ptr %3, align 8, !tbaa !25
  %9 = load ptr, ptr %8, align 8, !tbaa !29
  %10 = getelementptr i8, ptr %9, i64 -24
  %11 = load i64, ptr %10, align 8
  %12 = getelementptr inbounds i8, ptr %8, i64 %11
  call void @_ZNSt9basic_iosIcSt11char_traitsIcEE8setstateESt12_Ios_Iostate(ptr noundef nonnull align 8 dereferenceable(264) %12, i32 noundef 1)
  br label %19

13:                                               ; preds = %2
  %14 = load ptr, ptr %3, align 8, !tbaa !25
  %15 = load ptr, ptr %4, align 8, !tbaa !27
  %16 = load ptr, ptr %4, align 8, !tbaa !27
  %17 = call noundef i64 @_ZNSt11char_traitsIcE6lengthEPKc(ptr noundef %16)
  %18 = call noundef nonnull align 8 dereferenceable(8) ptr @_ZSt16__ostream_insertIcSt11char_traitsIcEERSt13basic_ostreamIT_T0_ES6_PKS3_l(ptr noundef nonnull align 8 dereferenceable(8) %14, ptr noundef %15, i64 noundef %17)
  br label %19

19:                                               ; preds = %13, %7
  %20 = load ptr, ptr %3, align 8, !tbaa !25
  ret ptr %20
}

; Function Attrs: mustprogress nounwind uwtable
define hidden noundef ptr @_ZN4cvc58internal8toStringENS0_8ResourceE(i32 noundef %0) #6 {
  %2 = alloca ptr, align 8
  %3 = alloca i32, align 4
  store i32 %0, ptr %3, align 4, !tbaa !23
  %4 = load i32, ptr %3, align 4, !tbaa !23
  switch i32 %4, label %24 [
    i32 0, label %5
    i32 1, label %6
    i32 2, label %7
    i32 3, label %8
    i32 4, label %9
    i32 5, label %10
    i32 6, label %11
    i32 7, label %12
    i32 8, label %13
    i32 9, label %14
    i32 10, label %15
    i32 11, label %16
    i32 12, label %17
    i32 13, label %18
    i32 14, label %19
    i32 15, label %20
    i32 16, label %21
    i32 17, label %22
    i32 18, label %23
  ]

5:                                                ; preds = %1
  store ptr @.str, ptr %2, align 8
  br label %25

6:                                                ; preds = %1
  store ptr @.str.1, ptr %2, align 8
  br label %25

7:                                                ; preds = %1
  store ptr @.str.2, ptr %2, align 8
  br label %25

8:                                                ; preds = %1
  store ptr @.str.3, ptr %2, align 8
  br label %25

9:                                                ; preds = %1
  store ptr @.str.4, ptr %2, align 8
  br label %25

10:                                               ; preds = %1
  store ptr @.str.5, ptr %2, align 8
  br label %25

11:                                               ; preds = %1
  store ptr @.str.6, ptr %2, align 8
  br label %25

12:                                               ; preds = %1
  store ptr @.str.7, ptr %2, align 8
  br label %25

13:                                               ; preds = %1
  store ptr @.str.8, ptr %2, align 8
  br label %25

14:                                               ; preds = %1
  store ptr @.str.9, ptr %2, align 8
  br label %25

15:                                               ; preds = %1
  store ptr @.str.10, ptr %2, align 8
  br label %25

16:                                               ; preds = %1
  store ptr @.str.11, ptr %2, align 8
  br label %25

17:                                               ; preds = %1
  store ptr @.str.12, ptr %2, align 8
  br label %25

18:                                               ; preds = %1
  store ptr @.str.13, ptr %2, align 8
  br label %25

19:                                               ; preds = %1
  store ptr @.str.14, ptr %2, align 8
  br label %25

20:                                               ; preds = %1
  store ptr @.str.15, ptr %2, align 8
  br label %25

21:                                               ; preds = %1
  store ptr @.str.16, ptr %2, align 8
  br label %25

22:                                               ; preds = %1
  store ptr @.str.17, ptr %2, align 8
  br label %25

23:                                               ; preds = %1
  store ptr @.str.18, ptr %2, align 8
  br label %25

24:                                               ; preds = %1
  store ptr @.str.19, ptr %2, align 8
  br label %25

25:                                               ; preds = %24, %23, %22, %21, %20, %19, %18, %17, %16, %15, %14, %13, %12, %11, %10, %9, %8, %7, %6, %5
  %26 = load ptr, ptr %2, align 8
  ret ptr %26
}

; Function Attrs: mustprogress uwtable
define hidden noundef nonnull align 8 dereferenceable(8) ptr @_ZN4cvc58internallsERSoNS0_8ResourceE(ptr noundef nonnull align 8 dereferenceable(8) %0, i32 noundef %1) #4 {
  %3 = alloca ptr, align 8
  %4 = alloca i32, align 4
  store ptr %0, ptr %3, align 8, !tbaa !25
  store i32 %1, ptr %4, align 4, !tbaa !23
  %5 = load ptr, ptr %3, align 8, !tbaa !25
  %6 = load i32, ptr %4, align 4, !tbaa !23
  %7 = call noundef ptr @_ZN4cvc58internal8toStringENS0_8ResourceE(i32 noundef %6)
  %8 = call noundef nonnull align 8 dereferenceable(8) ptr @_ZStlsISt11char_traitsIcEERSt13basic_ostreamIcT_ES5_PKc(ptr noundef nonnull align 8 dereferenceable(8) %5, ptr noundef %7)
  ret ptr %8
}