; Function Attrs: mustprogress uwtable
define hidden noundef nonnull align 8 dereferenceable(8) ptr @_ZN4cvc58internallsERSoNS0_8ResourceE(ptr noundef nonnull returned align 8 dereferenceable(8) %0, i32 noundef %1) local_unnamed_addr #8 {
  %3 = icmp ult i32 %1, 19
  br i1 %3, label %switch.lookup, label %_ZN4cvc58internal8toStringENS0_8ResourceE.exit

switch.lookup:                                    ; preds = %2
  %4 = zext nneg i32 %1 to i64
  %switch.gep = getelementptr inbounds nuw [19 x ptr], ptr @switch.table._ZNK4cvc58internal23StatisticHistogramValueINS0_8ResourceEE9printSafeEi, i64 0, i64 %4
  %switch.load = load ptr, ptr %switch.gep, align 8
  br label %_ZN4cvc58internal8toStringENS0_8ResourceE.exit

_ZN4cvc58internal8toStringENS0_8ResourceE.exit:   ; preds = %2, %switch.lookup
  %.0.i = phi ptr [ %switch.load, %switch.lookup ], [ @.str.19, %2 ]
  %5 = tail call noundef i64 @strlen(ptr noundef nonnull dereferenceable(1) %.0.i) #28
  %6 = tail call noundef nonnull align 8 dereferenceable(8) ptr @_ZSt16__ostream_insertIcSt11char_traitsIcEERSt13basic_ostreamIT_T0_ES6_PKS3_l(ptr noundef nonnull align 8 dereferenceable(8) %0, ptr noundef nonnull %.0.i, i64 noundef %5)
  ret ptr %0
}